; Function Attrs: nounwind uwtable
define i32 @IDACalcICB(ptr noundef %0, i32 noundef %1, double noundef %2, ptr noundef %3, ptr noundef %4) local_unnamed_addr #0 {
  %6 = icmp eq ptr %0, null
  br i1 %6, label %7, label %8

7:                                                ; preds = %5
  tail call void (ptr, i32, i32, ptr, ptr, ptr, ...) @IDAProcessError(ptr noundef null, i32 noundef -20, i32 noundef 1380, ptr noundef nonnull @__func__.IDACalcICB, ptr noundef nonnull @.str, ptr noundef nonnull @.str.1) #9
  br label %34

8:                                                ; preds = %5
  %9 = getelementptr inbounds nuw i8, ptr %0, i64 2120
  %10 = load i32, ptr %9, align 8, !tbaa !46
  %11 = icmp eq i32 %10, 0
  br i1 %11, label %12, label %13

12:                                               ; preds = %8
  tail call void (ptr, i32, i32, ptr, ptr, ptr, ...) @IDAProcessError(ptr noundef nonnull %0, i32 noundef -101, i32 noundef 1391, ptr noundef nonnull @__func__.IDACalcICB, ptr noundef nonnull @.str, ptr noundef nonnull @.str.5) #9
  br label %34

13:                                               ; preds = %8
  %14 = getelementptr inbounds nuw i8, ptr %0, i64 2112
  %15 = load ptr, ptr %14, align 8, !tbaa !3
  %16 = getelementptr inbounds nuw i8, ptr %15, i64 56
  %17 = load i32, ptr %16, align 8, !tbaa !40
  %.not = icmp slt i32 %1, %17
  br i1 %.not, label %19, label %18

18:                                               ; preds = %13
  tail call void (ptr, i32, i32, ptr, ptr, ptr, ...) @IDAProcessError(ptr noundef nonnull %0, i32 noundef -22, i32 noundef 1401, ptr noundef nonnull @__func__.IDACalcICB, ptr noundef nonnull @.str, ptr noundef nonnull @.str.12) #9
  br label %34

19:                                               ; preds = %13
  %20 = getelementptr inbounds nuw i8, ptr %15, i64 48
  %.02529 = load ptr, ptr %20, align 8, !tbaa !88
  %.not2830 = icmp eq ptr %.02529, null
  br i1 %.not2830, label %._crit_edge, label %.lr.ph

.lr.ph:                                           ; preds = %19, %23
  %.02531 = phi ptr [ %.025, %23 ], [ %.02529, %19 ]
  %21 = load i32, ptr %.02531, align 8, !tbaa !143
  %22 = icmp eq i32 %1, %21
  br i1 %22, label %._crit_edge, label %23

23:                                               ; preds = %.lr.ph
  %24 = getelementptr inbounds nuw i8, ptr %.02531, i64 128
  %.025 = load ptr, ptr %24, align 8, !tbaa !88
  %.not28 = icmp eq ptr %.025, null
  br i1 %.not28, label %._crit_edge, label %.lr.ph

._crit_edge:                                      ; preds = %23, %.lr.ph, %19
  %.025.lcssa = phi ptr [ null, %19 ], [ %.02531, %.lr.ph ], [ null, %23 ]
  %25 = getelementptr inbounds nuw i8, ptr %.025.lcssa, i64 16
  %26 = load ptr, ptr %25, align 8, !tbaa !89
  %27 = getelementptr inbounds nuw i8, ptr %15, i64 64
  store ptr %.025.lcssa, ptr %27, align 8, !tbaa !39
  %28 = getelementptr inbounds nuw i8, ptr %15, i64 344
  %29 = load ptr, ptr %28, align 8, !tbaa !48
  tail call void @N_VScale(double noundef 1.000000e+00, ptr noundef %3, ptr noundef %29) #9
  %30 = getelementptr inbounds nuw i8, ptr %15, i64 352
  %31 = load ptr, ptr %30, align 8, !tbaa !49
  tail call void @N_VScale(double noundef 1.000000e+00, ptr noundef %4, ptr noundef %31) #9
  %32 = getelementptr inbounds nuw i8, ptr %15, i64 192
  store i32 1, ptr %32, align 8, !tbaa !37
  %33 = tail call i32 @IDACalcIC(ptr noundef %26, i32 noundef 1, double noundef %2) #9
  store i32 0, ptr %32, align 8, !tbaa !37
  br label %34

34:                                               ; preds = %._crit_edge, %18, %12, %7
  %.0 = phi i32 [ -20, %7 ], [ -101, %12 ], [ -22, %18 ], [ %33, %._crit_edge ]
  ret i32 %.0
}